; ModuleID = '40/421.c'
source_filename = "40/421.c"
target datalayout = "e-m:e-p270:32:32-p271:32:32-p272:64:64-i64:64-f80:128-n8:16:32:64-S128"
target triple = "x86_64-pc-linux-gnu"

@.str = private unnamed_addr constant [4 x i8] c"%lf\00", align 1
@.str.1 = private unnamed_addr constant [14 x i8] c"Invalid input\00", align 1
@.str.2 = private unnamed_addr constant [6 x i8] c"%.4lf\00", align 1

; Function Attrs: noinline nounwind uwtable
define dso_local i32 @main() #0 {
  %1 = alloca i32, align 4
  %2 = alloca double, align 8
  %3 = alloca double, align 8
  %4 = alloca double, align 8
  %5 = alloca double, align 8
  %6 = alloca double, align 8
  %7 = alloca double, align 8
  %8 = alloca double, align 8
  %9 = alloca double, align 8
  store i32 0, i32* %1, align 4
  %10 = call i32 (i8*, ...) @__isoc99_scanf(i8* getelementptr inbounds ([4 x i8], [4 x i8]* @.str, i64 0, i64 0), double* %2)
  %11 = call i32 (i8*, ...) @__isoc99_scanf(i8* getelementptr inbounds ([4 x i8], [4 x i8]* @.str, i64 0, i64 0), double* %3)
  %12 = call i32 (i8*, ...) @__isoc99_scanf(i8* getelementptr inbounds ([4 x i8], [4 x i8]* @.str, i64 0, i64 0), double* %4)
  %13 = call i32 (i8*, ...) @__isoc99_scanf(i8* getelementptr inbounds ([4 x i8], [4 x i8]* @.str, i64 0, i64 0), double* %5)
  %14 = call i32 (i8*, ...) @__isoc99_scanf(i8* getelementptr inbounds ([4 x i8], [4 x i8]* @.str, i64 0, i64 0), double* %6)
  %15 = load double, double* %2, align 8
  %16 = load double, double* %3, align 8
  %17 = fadd double %15, %16
  %18 = load double, double* %4, align 8
  %19 = fadd double %17, %18
  %20 = load double, double* %5, align 8
  %21 = fadd double %19, %20
  %22 = fmul double 5.000000e-01, %21
  store double %22, double* %7, align 8
  %23 = load double, double* %6, align 8
  %24 = fmul double 1.000000e+02, %23
  %25 = fdiv double %24, 3.600000e+02
  store double %25, double* %9, align 8
  %26 = load double, double* %7, align 8
  %27 = load double, double* %2, align 8
  %28 = fsub double %26, %27
  %29 = load double, double* %7, align 8
  %30 = load double, double* %3, align 8
  %31 = fsub double %29, %30
  %32 = fmul double %28, %31
  %33 = load double, double* %7, align 8
  %34 = load double, double* %4, align 8
  %35 = fsub double %33, %34
  %36 = fmul double %32, %35
  %37 = load double, double* %7, align 8
  %38 = load double, double* %5, align 8
  %39 = fsub double %37, %38
  %40 = fmul double %36, %39
  %41 = load double, double* %2, align 8
  %42 = load double, double* %3, align 8
  %43 = fmul double %41, %42
  %44 = load double, double* %4, align 8
  %45 = fmul double %43, %44
  %46 = load double, double* %5, align 8
  %47 = fmul double %45, %46
  %48 = load double, double* %9, align 8
  %49 = call double @cos(double %48) #3
  %50 = fmul double %47, %49
  %51 = load double, double* %9, align 8
  %52 = call double @cos(double %51) #3
  %53 = fmul double %50, %52
  %54 = fsub double %40, %53
  %55 = fcmp olt double %54, 0.000000e+00
  br i1 %55, label %56, label %58

56:                                               ; preds = %0
  %57 = call i32 (i8*, ...) @printf(i8* getelementptr inbounds ([14 x i8], [14 x i8]* @.str.1, i64 0, i64 0))
  br label %67

58:                                               ; preds = %0
  %59 = load double, double* %2, align 8
  %60 = load double, double* %3, align 8
  %61 = load double, double* %4, align 8
  %62 = load double, double* %5, align 8
  %63 = load double, double* %6, align 8
  %64 = call double @area(double %59, double %60, double %61, double %62, double %63)
  store double %64, double* %8, align 8
  %65 = load double, double* %8, align 8
  %66 = call i32 (i8*, ...) @printf(i8* getelementptr inbounds ([6 x i8], [6 x i8]* @.str.2, i64 0, i64 0), double %65)
  br label %67

67:                                               ; preds = %58, %56
  %68 = load i32, i32* %1, align 4
  ret i32 %68
}

declare dso_local i32 @__isoc99_scanf(i8*, ...) #1

; Function Attrs: nounwind
declare dso_local double @cos(double) #2

declare dso_local i32 @printf(i8*, ...) #1

; Function Attrs: noinline nounwind uwtable
define dso_local double @area(double %0, double %1, double %2, double %3, double %4) #0 {
  %6 = alloca double, align 8
  %7 = alloca double, align 8
  %8 = alloca double, align 8
  %9 = alloca double, align 8
  %10 = alloca double, align 8
  %11 = alloca double, align 8
  %12 = alloca double, align 8
  store double %0, double* %6, align 8
  store double %1, double* %7, align 8
  store double %2, double* %8, align 8
  store double %3, double* %9, align 8
  store double %4, double* %10, align 8
  %13 = load double, double* %6, align 8
  %14 = load double, double* %7, align 8
  %15 = fadd double %13, %14
  %16 = load double, double* %8, align 8
  %17 = fadd double %15, %16
  %18 = load double, double* %9, align 8
  %19 = fadd double %17, %18
  %20 = fmul double 5.000000e-01, %19
  store double %20, double* %11, align 8
  %21 = load double, double* %10, align 8
  %22 = fmul double 1.000000e+02, %21
  %23 = fdiv double %22, 3.600000e+02
  store double %23, double* %10, align 8
  %24 = load double, double* %11, align 8
  %25 = load double, double* %6, align 8
  %26 = fsub double %24, %25
  %27 = load double, double* %11, align 8
  %28 = load double, double* %7, align 8
  %29 = fsub double %27, %28
  %30 = fmul double %26, %29
  %31 = load double, double* %11, align 8
  %32 = load double, double* %8, align 8
  %33 = fsub double %31, %32
  %34 = fmul double %30, %33
  %35 = load double, double* %11, align 8
  %36 = load double, double* %9, align 8
  %37 = fsub double %35, %36
  %38 = fmul double %34, %37
  %39 = load double, double* %6, align 8
  %40 = load double, double* %7, align 8
  %41 = fmul double %39, %40
  %42 = load double, double* %8, align 8
  %43 = fmul double %41, %42
  %44 = load double, double* %9, align 8
  %45 = fmul double %43, %44
  %46 = load double, double* %10, align 8
  %47 = call double @cos(double %46) #3
  %48 = fmul double %45, %47
  %49 = load double, double* %10, align 8
  %50 = call double @cos(double %49) #3
  %51 = fmul double %48, %50
  %52 = fsub double %38, %51
  %53 = call double @sqrt(double %52) #3
  store double %53, double* %12, align 8
  %54 = load double, double* %12, align 8
  ret double %54
}

; Function Attrs: nounwind
declare dso_local double @sqrt(double) #2


!llvm.module.flags = !{!0}
!llvm.ident = !{!1}

!0 = !{i32 1, !"wchar_size", i32 4}
!1 = !{!"clang version 10.0.0-4ubuntu1 "}
